; Function Attrs: nounwind uwtable
define ptr @l_Lake_logSerialMessage___rarg(ptr noundef %0, ptr noundef %1, ptr noundef %2) #1 {
  %4 = getelementptr inbounds nuw i8, ptr %0, i64 8
  %5 = load ptr, ptr %4, align 8, !tbaa !10
  %6 = ptrtoint ptr %5 to i64
  %7 = and i64 %6, 1
  %.not = icmp eq i64 %7, 0
  br i1 %.not, label %8, label %lean_inc.exit27

8:                                                ; preds = %3
  %.val.i = load i32, ptr %5, align 4, !tbaa !4
  %9 = icmp sgt i32 %.val.i, 0
  br i1 %9, label %10, label %12, !prof !9

10:                                               ; preds = %8
  %11 = add nuw i32 %.val.i, 1
  store i32 %11, ptr %5, align 4, !tbaa !4
  br label %18

12:                                               ; preds = %8
  %.not.i38 = icmp eq i32 %.val.i, 0
  br i1 %.not.i38, label %.thread45, label %15

.thread45:                                        ; preds = %12
  %13 = getelementptr inbounds nuw i8, ptr %5, i64 50
  %14 = load i8, ptr %13, align 1, !tbaa !18
  br label %lean_dec.exit25

15:                                               ; preds = %12
  tail call void @lean_inc_ref_cold(ptr noundef nonnull %5) #9
  %.pr = load i32, ptr %5, align 4, !tbaa !4
  br label %18

lean_inc.exit27:                                  ; preds = %3
  %16 = getelementptr inbounds nuw i8, ptr %5, i64 50
  %17 = load i8, ptr %16, align 1, !tbaa !18
  br label %lean_dec.exit25

18:                                               ; preds = %15, %10
  %19 = phi i32 [ %.pr, %15 ], [ %11, %10 ]
  %20 = getelementptr inbounds nuw i8, ptr %5, i64 50
  %21 = load i8, ptr %20, align 1, !tbaa !18
  %22 = icmp sgt i32 %19, 1
  br i1 %22, label %23, label %25, !prof !14

23:                                               ; preds = %18
  %24 = add nsw i32 %19, -1
  store i32 %24, ptr %5, align 4, !tbaa !4
  br label %lean_dec.exit25

25:                                               ; preds = %18
  %.not.i = icmp eq i32 %19, 0
  br i1 %.not.i, label %lean_dec.exit25, label %26

26:                                               ; preds = %25
  tail call void @lean_dec_ref_cold(ptr noundef nonnull %5) #9
  br label %lean_dec.exit25

lean_dec.exit25:                                  ; preds = %26, %25, %23, %.thread45, %lean_inc.exit27
  %27 = phi i8 [ %17, %lean_inc.exit27 ], [ %21, %23 ], [ %21, %25 ], [ %21, %26 ], [ %14, %.thread45 ]
  %28 = icmp eq i8 %27, 0
  br i1 %28, label %29, label %41

29:                                               ; preds = %lean_dec.exit25
  %30 = ptrtoint ptr %1 to i64
  %31 = and i64 %30, 1
  %.not52 = icmp eq i64 %31, 0
  br i1 %.not52, label %32, label %lean_dec.exit24

32:                                               ; preds = %29
  %33 = load i32, ptr %1, align 4, !tbaa !4
  %34 = icmp sgt i32 %33, 1
  br i1 %34, label %35, label %37, !prof !9

35:                                               ; preds = %32
  %36 = add nsw i32 %33, -1
  store i32 %36, ptr %1, align 4, !tbaa !4
  br label %lean_dec.exit24

37:                                               ; preds = %32
  %.not.i28 = icmp eq i32 %33, 0
  br i1 %.not.i28, label %lean_dec.exit24, label %38

38:                                               ; preds = %37
  tail call void @lean_dec_ref_cold(ptr noundef nonnull %1) #9
  br label %lean_dec.exit24

lean_dec.exit24:                                  ; preds = %38, %37, %35, %29
  %39 = tail call ptr @l_Lake_LogEntry_ofSerialMessage(ptr noundef nonnull %0)
  %40 = tail call ptr @lean_apply_1(ptr noundef %2, ptr noundef nonnull %39) #9
  br label %97

41:                                               ; preds = %lean_dec.exit25
  %42 = ptrtoint ptr %2 to i64
  %43 = and i64 %42, 1
  %.not47 = icmp eq i64 %43, 0
  br i1 %.not47, label %44, label %lean_dec.exit23

44:                                               ; preds = %41
  %45 = load i32, ptr %2, align 4, !tbaa !4
  %46 = icmp sgt i32 %45, 1
  br i1 %46, label %47, label %49, !prof !9

47:                                               ; preds = %44
  %48 = add nsw i32 %45, -1
  store i32 %48, ptr %2, align 4, !tbaa !4
  br label %lean_dec.exit23

49:                                               ; preds = %44
  %.not.i30 = icmp eq i32 %45, 0
  br i1 %.not.i30, label %lean_dec.exit23, label %50

50:                                               ; preds = %49
  tail call void @lean_dec_ref_cold(ptr noundef nonnull %2) #9
  br label %lean_dec.exit23

lean_dec.exit23:                                  ; preds = %50, %49, %47, %41
  %51 = ptrtoint ptr %0 to i64
  %52 = and i64 %51, 1
  %.not48 = icmp eq i64 %52, 0
  br i1 %.not48, label %53, label %lean_dec.exit22

53:                                               ; preds = %lean_dec.exit23
  %54 = load i32, ptr %0, align 4, !tbaa !4
  %55 = icmp sgt i32 %54, 1
  br i1 %55, label %56, label %58, !prof !9

56:                                               ; preds = %53
  %57 = add nsw i32 %54, -1
  store i32 %57, ptr %0, align 4, !tbaa !4
  br label %lean_dec.exit22

58:                                               ; preds = %53
  %.not.i32 = icmp eq i32 %54, 0
  br i1 %.not.i32, label %lean_dec.exit22, label %59

59:                                               ; preds = %58
  tail call void @lean_dec_ref_cold(ptr noundef nonnull %0) #9
  br label %lean_dec.exit22

lean_dec.exit22:                                  ; preds = %59, %58, %56, %lean_dec.exit23
  %60 = getelementptr inbounds nuw i8, ptr %1, i64 8
  %61 = load ptr, ptr %60, align 8, !tbaa !10
  %62 = ptrtoint ptr %61 to i64
  %63 = and i64 %62, 1
  %.not49 = icmp eq i64 %63, 0
  br i1 %.not49, label %64, label %lean_inc.exit26

64:                                               ; preds = %lean_dec.exit22
  %.val.i39 = load i32, ptr %61, align 4, !tbaa !4
  %65 = icmp sgt i32 %.val.i39, 0
  br i1 %65, label %66, label %68, !prof !9

66:                                               ; preds = %64
  %67 = add nuw i32 %.val.i39, 1
  store i32 %67, ptr %61, align 4, !tbaa !4
  br label %lean_inc.exit26

68:                                               ; preds = %64
  %.not.i40 = icmp eq i32 %.val.i39, 0
  br i1 %.not.i40, label %lean_inc.exit26, label %69

69:                                               ; preds = %68
  tail call void @lean_inc_ref_cold(ptr noundef nonnull %61) #9
  br label %lean_inc.exit26

lean_inc.exit26:                                  ; preds = %69, %68, %66, %lean_dec.exit22
  %70 = ptrtoint ptr %1 to i64
  %71 = and i64 %70, 1
  %.not50 = icmp eq i64 %71, 0
  br i1 %.not50, label %72, label %lean_dec.exit21

72:                                               ; preds = %lean_inc.exit26
  %73 = load i32, ptr %1, align 4, !tbaa !4
  %74 = icmp sgt i32 %73, 1
  br i1 %74, label %75, label %77, !prof !9

75:                                               ; preds = %72
  %76 = add nsw i32 %73, -1
  store i32 %76, ptr %1, align 4, !tbaa !4
  br label %lean_dec.exit21

77:                                               ; preds = %72
  %.not.i34 = icmp eq i32 %73, 0
  br i1 %.not.i34, label %lean_dec.exit21, label %78

78:                                               ; preds = %77
  tail call void @lean_dec_ref_cold(ptr noundef nonnull %1) #9
  br label %lean_dec.exit21

lean_dec.exit21:                                  ; preds = %78, %77, %75, %lean_inc.exit26
  %79 = getelementptr inbounds nuw i8, ptr %61, i64 16
  %80 = load ptr, ptr %79, align 8, !tbaa !10
  %81 = ptrtoint ptr %80 to i64
  %82 = and i64 %81, 1
  %.not51 = icmp eq i64 %82, 0
  br i1 %.not51, label %83, label %lean_inc.exit

83:                                               ; preds = %lean_dec.exit21
  %.val.i42 = load i32, ptr %80, align 4, !tbaa !4
  %84 = icmp sgt i32 %.val.i42, 0
  br i1 %84, label %85, label %87, !prof !9

85:                                               ; preds = %83
  %86 = add nuw i32 %.val.i42, 1
  store i32 %86, ptr %80, align 4, !tbaa !4
  br label %lean_inc.exit

87:                                               ; preds = %83
  %.not.i43 = icmp eq i32 %.val.i42, 0
  br i1 %.not.i43, label %lean_inc.exit, label %88

88:                                               ; preds = %87
  tail call void @lean_inc_ref_cold(ptr noundef nonnull %80) #9
  br label %lean_inc.exit

lean_inc.exit:                                    ; preds = %88, %87, %85, %lean_dec.exit21
  br i1 %.not49, label %89, label %lean_dec.exit

89:                                               ; preds = %lean_inc.exit
  %90 = load i32, ptr %61, align 4, !tbaa !4
  %91 = icmp sgt i32 %90, 1
  br i1 %91, label %92, label %94, !prof !9

92:                                               ; preds = %89
  %93 = add nsw i32 %90, -1
  store i32 %93, ptr %61, align 4, !tbaa !4
  br label %lean_dec.exit

94:                                               ; preds = %89
  %.not.i36 = icmp eq i32 %90, 0
  br i1 %.not.i36, label %lean_dec.exit, label %95

95:                                               ; preds = %94
  tail call void @lean_dec_ref_cold(ptr noundef nonnull %61) #9
  br label %lean_dec.exit

lean_dec.exit:                                    ; preds = %95, %94, %92, %lean_inc.exit
  %96 = tail call ptr @lean_apply_2(ptr noundef %80, ptr noundef nonnull inttoptr (i64 1 to ptr), ptr noundef nonnull inttoptr (i64 1 to ptr)) #9
  br label %97

97:                                               ; preds = %lean_dec.exit, %lean_dec.exit24
  %.0 = phi ptr [ %40, %lean_dec.exit24 ], [ %96, %lean_dec.exit ]
  ret ptr %.0
}